target datalayout = "e-m:e-p270:32:32-p271:32:32-p272:64:64-i64:64-i128:128-f80:128-n8:16:32:64-S128"
target triple = "x86_64-pc-linux-gnu"

%struct._zend_phpdbg_globals = type { [11 x %struct._zend_array], %struct._zend_array, %struct._zend_array, ptr, ptr, %struct.phpdbg_frame_t, i32, ptr, %struct.phpdbg_lexer_data, ptr, %struct.sigaction, i32, i64, %struct.phpdbg_btree, %struct.phpdbg_btree, %struct._zend_array, %struct._zend_array, %struct._zend_array, %struct._zend_array, ptr, ptr, i8, ptr, ptr, ptr, i64, ptr, %struct._zval_struct, i32, i32, i8, i8, ptr, ptr, ptr, %struct._zend_array, ptr, ptr, ptr, [3 x %struct.anon.8], ptr, %struct.anon.9, i64, [2 x ptr], [3 x ptr], ptr, i8, ptr, ptr, [500 x i8], i32, %struct.phpdbg_signal_safe_mem, ptr, i64, ptr, i64 }
%struct.phpdbg_frame_t = type { i32, ptr, ptr }
%struct.phpdbg_lexer_data = type { i32, ptr, ptr, ptr, ptr, i32 }
%struct.sigaction = type { %union.anon.2, %struct.__sigset_t, i32, ptr }
%union.anon.2 = type { ptr }
%struct.__sigset_t = type { [16 x i64] }
%struct.phpdbg_btree = type { i64, i64, i8, ptr }
%struct._zval_struct = type { %union._zend_value, %union.anon.4, %union.anon.7 }
%union._zend_value = type { i64 }
%union.anon.4 = type { i32 }
%union.anon.7 = type { i32 }
%struct._zend_array = type { %struct._zend_refcounted_h, %union.anon.0, i32, %union.anon.1, i32, i32, i32, i32, i64, ptr }
%struct._zend_refcounted_h = type { i32, %union.anon }
%union.anon = type { i32 }
%union.anon.0 = type { i32 }
%union.anon.1 = type { ptr }
%struct.anon.8 = type { i32 }
%struct.anon.9 = type { i8, i32, i32, ptr, i32 }
%struct.phpdbg_signal_safe_mem = type { ptr, i8, ptr, ptr }
%struct._zend_string = type { %struct._zend_refcounted_h, i64, i64, [1 x i8] }

@phpdbg_globals = external global %struct._zend_phpdbg_globals, align 8

; Function Attrs: nounwind uwtable
define internal void @list_code() #0 {
  %1 = alloca ptr, align 8
  %2 = alloca i32, align 4
  %3 = alloca i64, align 8
  %4 = alloca i8, align 1
  %5 = alloca ptr, align 8
  %6 = alloca ptr, align 8
  %7 = alloca i64, align 8
  %8 = alloca i8, align 1
  %9 = alloca ptr, align 8
  %10 = alloca ptr, align 8
  %11 = alloca ptr, align 8
  %12 = load i64, ptr getelementptr inbounds (%struct._zend_phpdbg_globals, ptr @phpdbg_globals, i32 0, i32 53), align 8
  %13 = and i64 %12, 4096
  %14 = icmp ne i64 %13, 0
  br i1 %14, label %469, label %15

15:                                               ; preds = %0
  %16 = call ptr @zend_get_executed_filename()
  store ptr %16, ptr %10, align 8
  %17 = load ptr, ptr %10, align 8
  %18 = load ptr, ptr %10, align 8
  %19 = call i64 @strlen(ptr noundef %18) #16
  store ptr %17, ptr %6, align 8
  store i64 %19, ptr %7, align 8
  store i8 0, ptr %8, align 1
  %20 = load i64, ptr %7, align 8
  %21 = load i8, ptr %8, align 1
  %22 = trunc i8 %21 to i1
  store i64 %20, ptr %3, align 8
  %23 = zext i1 %22 to i8
  store i8 %23, ptr %4, align 1
  %24 = load i8, ptr %4, align 1
  %25 = trunc i8 %24 to i1
  br i1 %25, label %26, label %34

26:                                               ; preds = %15
  %27 = load i64, ptr %3, align 8
  %28 = add i64 24, %27
  %29 = add i64 %28, 1
  %30 = add i64 %29, 8
  %31 = sub i64 %30, 1
  %32 = and i64 %31, -8
  %33 = call noalias ptr @__zend_malloc(i64 noundef %32) #22
  br label %438

34:                                               ; preds = %15
  %35 = load i64, ptr %3, align 8
  %36 = add i64 24, %35
  %37 = add i64 %36, 1
  %38 = add i64 %37, 8
  %39 = sub i64 %38, 1
  %40 = and i64 %39, -8
  %41 = call i1 @llvm.is.constant.i64(i64 %40)
  br i1 %41, label %42, label %428

42:                                               ; preds = %34
  %43 = load i64, ptr %3, align 8
  %44 = add i64 24, %43
  %45 = add i64 %44, 1
  %46 = add i64 %45, 8
  %47 = sub i64 %46, 1
  %48 = and i64 %47, -8
  %49 = icmp ule i64 %48, 8
  br i1 %49, label %50, label %52

50:                                               ; preds = %42
  %51 = call noalias ptr @_emalloc_8() #15
  br label %426

52:                                               ; preds = %42
  %53 = load i64, ptr %3, align 8
  %54 = add i64 24, %53
  %55 = add i64 %54, 1
  %56 = add i64 %55, 8
  %57 = sub i64 %56, 1
  %58 = and i64 %57, -8
  %59 = icmp ule i64 %58, 16
  br i1 %59, label %60, label %62

60:                                               ; preds = %52
  %61 = call noalias ptr @_emalloc_16() #15
  br label %424

62:                                               ; preds = %52
  %63 = load i64, ptr %3, align 8
  %64 = add i64 24, %63
  %65 = add i64 %64, 1
  %66 = add i64 %65, 8
  %67 = sub i64 %66, 1
  %68 = and i64 %67, -8
  %69 = icmp ule i64 %68, 24
  br i1 %69, label %70, label %72

70:                                               ; preds = %62
  %71 = call noalias ptr @_emalloc_24() #15
  br label %422

72:                                               ; preds = %62
  %73 = load i64, ptr %3, align 8
  %74 = add i64 24, %73
  %75 = add i64 %74, 1
  %76 = add i64 %75, 8
  %77 = sub i64 %76, 1
  %78 = and i64 %77, -8
  %79 = icmp ule i64 %78, 32
  br i1 %79, label %80, label %82

80:                                               ; preds = %72
  %81 = call noalias ptr @_emalloc_32() #15
  br label %420

82:                                               ; preds = %72
  %83 = load i64, ptr %3, align 8
  %84 = add i64 24, %83
  %85 = add i64 %84, 1
  %86 = add i64 %85, 8
  %87 = sub i64 %86, 1
  %88 = and i64 %87, -8
  %89 = icmp ule i64 %88, 40
  br i1 %89, label %90, label %92

90:                                               ; preds = %82
  %91 = call noalias ptr @_emalloc_40() #15
  br label %418

92:                                               ; preds = %82
  %93 = load i64, ptr %3, align 8
  %94 = add i64 24, %93
  %95 = add i64 %94, 1
  %96 = add i64 %95, 8
  %97 = sub i64 %96, 1
  %98 = and i64 %97, -8
  %99 = icmp ule i64 %98, 48
  br i1 %99, label %100, label %102

100:                                              ; preds = %92
  %101 = call noalias ptr @_emalloc_48() #15
  br label %416

102:                                              ; preds = %92
  %103 = load i64, ptr %3, align 8
  %104 = add i64 24, %103
  %105 = add i64 %104, 1
  %106 = add i64 %105, 8
  %107 = sub i64 %106, 1
  %108 = and i64 %107, -8
  %109 = icmp ule i64 %108, 56
  br i1 %109, label %110, label %112

110:                                              ; preds = %102
  %111 = call noalias ptr @_emalloc_56() #15
  br label %414

112:                                              ; preds = %102
  %113 = load i64, ptr %3, align 8
  %114 = add i64 24, %113
  %115 = add i64 %114, 1
  %116 = add i64 %115, 8
  %117 = sub i64 %116, 1
  %118 = and i64 %117, -8
  %119 = icmp ule i64 %118, 64
  br i1 %119, label %120, label %122

120:                                              ; preds = %112
  %121 = call noalias ptr @_emalloc_64() #15
  br label %412

122:                                              ; preds = %112
  %123 = load i64, ptr %3, align 8
  %124 = add i64 24, %123
  %125 = add i64 %124, 1
  %126 = add i64 %125, 8
  %127 = sub i64 %126, 1
  %128 = and i64 %127, -8
  %129 = icmp ule i64 %128, 80
  br i1 %129, label %130, label %132

130:                                              ; preds = %122
  %131 = call noalias ptr @_emalloc_80() #15
  br label %410

132:                                              ; preds = %122
  %133 = load i64, ptr %3, align 8
  %134 = add i64 24, %133
  %135 = add i64 %134, 1
  %136 = add i64 %135, 8
  %137 = sub i64 %136, 1
  %138 = and i64 %137, -8
  %139 = icmp ule i64 %138, 96
  br i1 %139, label %140, label %142

140:                                              ; preds = %132
  %141 = call noalias ptr @_emalloc_96() #15
  br label %408

142:                                              ; preds = %132
  %143 = load i64, ptr %3, align 8
  %144 = add i64 24, %143
  %145 = add i64 %144, 1
  %146 = add i64 %145, 8
  %147 = sub i64 %146, 1
  %148 = and i64 %147, -8
  %149 = icmp ule i64 %148, 112
  br i1 %149, label %150, label %152

150:                                              ; preds = %142
  %151 = call noalias ptr @_emalloc_112() #15
  br label %406

152:                                              ; preds = %142
  %153 = load i64, ptr %3, align 8
  %154 = add i64 24, %153
  %155 = add i64 %154, 1
  %156 = add i64 %155, 8
  %157 = sub i64 %156, 1
  %158 = and i64 %157, -8
  %159 = icmp ule i64 %158, 128
  br i1 %159, label %160, label %162

160:                                              ; preds = %152
  %161 = call noalias ptr @_emalloc_128() #15
  br label %404

162:                                              ; preds = %152
  %163 = load i64, ptr %3, align 8
  %164 = add i64 24, %163
  %165 = add i64 %164, 1
  %166 = add i64 %165, 8
  %167 = sub i64 %166, 1
  %168 = and i64 %167, -8
  %169 = icmp ule i64 %168, 160
  br i1 %169, label %170, label %172

170:                                              ; preds = %162
  %171 = call noalias ptr @_emalloc_160() #15
  br label %402

172:                                              ; preds = %162
  %173 = load i64, ptr %3, align 8
  %174 = add i64 24, %173
  %175 = add i64 %174, 1
  %176 = add i64 %175, 8
  %177 = sub i64 %176, 1
  %178 = and i64 %177, -8
  %179 = icmp ule i64 %178, 192
  br i1 %179, label %180, label %182

180:                                              ; preds = %172
  %181 = call noalias ptr @_emalloc_192() #15
  br label %400

182:                                              ; preds = %172
  %183 = load i64, ptr %3, align 8
  %184 = add i64 24, %183
  %185 = add i64 %184, 1
  %186 = add i64 %185, 8
  %187 = sub i64 %186, 1
  %188 = and i64 %187, -8
  %189 = icmp ule i64 %188, 224
  br i1 %189, label %190, label %192

190:                                              ; preds = %182
  %191 = call noalias ptr @_emalloc_224() #15
  br label %398

192:                                              ; preds = %182
  %193 = load i64, ptr %3, align 8
  %194 = add i64 24, %193
  %195 = add i64 %194, 1
  %196 = add i64 %195, 8
  %197 = sub i64 %196, 1
  %198 = and i64 %197, -8
  %199 = icmp ule i64 %198, 256
  br i1 %199, label %200, label %202

200:                                              ; preds = %192
  %201 = call noalias ptr @_emalloc_256() #15
  br label %396

202:                                              ; preds = %192
  %203 = load i64, ptr %3, align 8
  %204 = add i64 24, %203
  %205 = add i64 %204, 1
  %206 = add i64 %205, 8
  %207 = sub i64 %206, 1
  %208 = and i64 %207, -8
  %209 = icmp ule i64 %208, 320
  br i1 %209, label %210, label %212

210:                                              ; preds = %202
  %211 = call noalias ptr @_emalloc_320() #15
  br label %394

212:                                              ; preds = %202
  %213 = load i64, ptr %3, align 8
  %214 = add i64 24, %213
  %215 = add i64 %214, 1
  %216 = add i64 %215, 8
  %217 = sub i64 %216, 1
  %218 = and i64 %217, -8
  %219 = icmp ule i64 %218, 384
  br i1 %219, label %220, label %222

220:                                              ; preds = %212
  %221 = call noalias ptr @_emalloc_384() #15
  br label %392

222:                                              ; preds = %212
  %223 = load i64, ptr %3, align 8
  %224 = add i64 24, %223
  %225 = add i64 %224, 1
  %226 = add i64 %225, 8
  %227 = sub i64 %226, 1
  %228 = and i64 %227, -8
  %229 = icmp ule i64 %228, 448
  br i1 %229, label %230, label %232

230:                                              ; preds = %222
  %231 = call noalias ptr @_emalloc_448() #15
  br label %390

232:                                              ; preds = %222
  %233 = load i64, ptr %3, align 8
  %234 = add i64 24, %233
  %235 = add i64 %234, 1
  %236 = add i64 %235, 8
  %237 = sub i64 %236, 1
  %238 = and i64 %237, -8
  %239 = icmp ule i64 %238, 512
  br i1 %239, label %240, label %242

240:                                              ; preds = %232
  %241 = call noalias ptr @_emalloc_512() #15
  br label %388

242:                                              ; preds = %232
  %243 = load i64, ptr %3, align 8
  %244 = add i64 24, %243
  %245 = add i64 %244, 1
  %246 = add i64 %245, 8
  %247 = sub i64 %246, 1
  %248 = and i64 %247, -8
  %249 = icmp ule i64 %248, 640
  br i1 %249, label %250, label %252

250:                                              ; preds = %242
  %251 = call noalias ptr @_emalloc_640() #15
  br label %386

252:                                              ; preds = %242
  %253 = load i64, ptr %3, align 8
  %254 = add i64 24, %253
  %255 = add i64 %254, 1
  %256 = add i64 %255, 8
  %257 = sub i64 %256, 1
  %258 = and i64 %257, -8
  %259 = icmp ule i64 %258, 768
  br i1 %259, label %260, label %262

260:                                              ; preds = %252
  %261 = call noalias ptr @_emalloc_768() #15
  br label %384

262:                                              ; preds = %252
  %263 = load i64, ptr %3, align 8
  %264 = add i64 24, %263
  %265 = add i64 %264, 1
  %266 = add i64 %265, 8
  %267 = sub i64 %266, 1
  %268 = and i64 %267, -8
  %269 = icmp ule i64 %268, 896
  br i1 %269, label %270, label %272

270:                                              ; preds = %262
  %271 = call noalias ptr @_emalloc_896() #15
  br label %382

272:                                              ; preds = %262
  %273 = load i64, ptr %3, align 8
  %274 = add i64 24, %273
  %275 = add i64 %274, 1
  %276 = add i64 %275, 8
  %277 = sub i64 %276, 1
  %278 = and i64 %277, -8
  %279 = icmp ule i64 %278, 1024
  br i1 %279, label %280, label %282

280:                                              ; preds = %272
  %281 = call noalias ptr @_emalloc_1024() #15
  br label %380

282:                                              ; preds = %272
  %283 = load i64, ptr %3, align 8
  %284 = add i64 24, %283
  %285 = add i64 %284, 1
  %286 = add i64 %285, 8
  %287 = sub i64 %286, 1
  %288 = and i64 %287, -8
  %289 = icmp ule i64 %288, 1280
  br i1 %289, label %290, label %292

290:                                              ; preds = %282
  %291 = call noalias ptr @_emalloc_1280() #15
  br label %378

292:                                              ; preds = %282
  %293 = load i64, ptr %3, align 8
  %294 = add i64 24, %293
  %295 = add i64 %294, 1
  %296 = add i64 %295, 8
  %297 = sub i64 %296, 1
  %298 = and i64 %297, -8
  %299 = icmp ule i64 %298, 1536
  br i1 %299, label %300, label %302

300:                                              ; preds = %292
  %301 = call noalias ptr @_emalloc_1536() #15
  br label %376

302:                                              ; preds = %292
  %303 = load i64, ptr %3, align 8
  %304 = add i64 24, %303
  %305 = add i64 %304, 1
  %306 = add i64 %305, 8
  %307 = sub i64 %306, 1
  %308 = and i64 %307, -8
  %309 = icmp ule i64 %308, 1792
  br i1 %309, label %310, label %312

310:                                              ; preds = %302
  %311 = call noalias ptr @_emalloc_1792() #15
  br label %374

312:                                              ; preds = %302
  %313 = load i64, ptr %3, align 8
  %314 = add i64 24, %313
  %315 = add i64 %314, 1
  %316 = add i64 %315, 8
  %317 = sub i64 %316, 1
  %318 = and i64 %317, -8
  %319 = icmp ule i64 %318, 2048
  br i1 %319, label %320, label %322

320:                                              ; preds = %312
  %321 = call noalias ptr @_emalloc_2048() #15
  br label %372

322:                                              ; preds = %312
  %323 = load i64, ptr %3, align 8
  %324 = add i64 24, %323
  %325 = add i64 %324, 1
  %326 = add i64 %325, 8
  %327 = sub i64 %326, 1
  %328 = and i64 %327, -8
  %329 = icmp ule i64 %328, 2560
  br i1 %329, label %330, label %332

330:                                              ; preds = %322
  %331 = call noalias ptr @_emalloc_2560() #15
  br label %370

332:                                              ; preds = %322
  %333 = load i64, ptr %3, align 8
  %334 = add i64 24, %333
  %335 = add i64 %334, 1
  %336 = add i64 %335, 8
  %337 = sub i64 %336, 1
  %338 = and i64 %337, -8
  %339 = icmp ule i64 %338, 3072
  br i1 %339, label %340, label %342

340:                                              ; preds = %332
  %341 = call noalias ptr @_emalloc_3072() #15
  br label %368

342:                                              ; preds = %332
  %343 = load i64, ptr %3, align 8
  %344 = add i64 24, %343
  %345 = add i64 %344, 1
  %346 = add i64 %345, 8
  %347 = sub i64 %346, 1
  %348 = and i64 %347, -8
  %349 = icmp ule i64 %348, 2093056
  br i1 %349, label %350, label %358

350:                                              ; preds = %342
  %351 = load i64, ptr %3, align 8
  %352 = add i64 24, %351
  %353 = add i64 %352, 1
  %354 = add i64 %353, 8
  %355 = sub i64 %354, 1
  %356 = and i64 %355, -8
  %357 = call noalias ptr @_emalloc_large(i64 noundef %356) #22
  br label %366

358:                                              ; preds = %342
  %359 = load i64, ptr %3, align 8
  %360 = add i64 24, %359
  %361 = add i64 %360, 1
  %362 = add i64 %361, 8
  %363 = sub i64 %362, 1
  %364 = and i64 %363, -8
  %365 = call noalias ptr @_emalloc_huge(i64 noundef %364) #22
  br label %366

366:                                              ; preds = %358, %350
  %367 = phi ptr [ %357, %350 ], [ %365, %358 ]
  br label %368

368:                                              ; preds = %366, %340
  %369 = phi ptr [ %341, %340 ], [ %367, %366 ]
  br label %370

370:                                              ; preds = %368, %330
  %371 = phi ptr [ %331, %330 ], [ %369, %368 ]
  br label %372

372:                                              ; preds = %370, %320
  %373 = phi ptr [ %321, %320 ], [ %371, %370 ]
  br label %374

374:                                              ; preds = %372, %310
  %375 = phi ptr [ %311, %310 ], [ %373, %372 ]
  br label %376

376:                                              ; preds = %374, %300
  %377 = phi ptr [ %301, %300 ], [ %375, %374 ]
  br label %378

378:                                              ; preds = %376, %290
  %379 = phi ptr [ %291, %290 ], [ %377, %376 ]
  br label %380

380:                                              ; preds = %378, %280
  %381 = phi ptr [ %281, %280 ], [ %379, %378 ]
  br label %382

382:                                              ; preds = %380, %270
  %383 = phi ptr [ %271, %270 ], [ %381, %380 ]
  br label %384

384:                                              ; preds = %382, %260
  %385 = phi ptr [ %261, %260 ], [ %383, %382 ]
  br label %386

386:                                              ; preds = %384, %250
  %387 = phi ptr [ %251, %250 ], [ %385, %384 ]
  br label %388

388:                                              ; preds = %386, %240
  %389 = phi ptr [ %241, %240 ], [ %387, %386 ]
  br label %390

390:                                              ; preds = %388, %230
  %391 = phi ptr [ %231, %230 ], [ %389, %388 ]
  br label %392

392:                                              ; preds = %390, %220
  %393 = phi ptr [ %221, %220 ], [ %391, %390 ]
  br label %394

394:                                              ; preds = %392, %210
  %395 = phi ptr [ %211, %210 ], [ %393, %392 ]
  br label %396

396:                                              ; preds = %394, %200
  %397 = phi ptr [ %201, %200 ], [ %395, %394 ]
  br label %398

398:                                              ; preds = %396, %190
  %399 = phi ptr [ %191, %190 ], [ %397, %396 ]
  br label %400

400:                                              ; preds = %398, %180
  %401 = phi ptr [ %181, %180 ], [ %399, %398 ]
  br label %402

402:                                              ; preds = %400, %170
  %403 = phi ptr [ %171, %170 ], [ %401, %400 ]
  br label %404

404:                                              ; preds = %402, %160
  %405 = phi ptr [ %161, %160 ], [ %403, %402 ]
  br label %406

406:                                              ; preds = %404, %150
  %407 = phi ptr [ %151, %150 ], [ %405, %404 ]
  br label %408

408:                                              ; preds = %406, %140
  %409 = phi ptr [ %141, %140 ], [ %407, %406 ]
  br label %410

410:                                              ; preds = %408, %130
  %411 = phi ptr [ %131, %130 ], [ %409, %408 ]
  br label %412

412:                                              ; preds = %410, %120
  %413 = phi ptr [ %121, %120 ], [ %411, %410 ]
  br label %414

414:                                              ; preds = %412, %110
  %415 = phi ptr [ %111, %110 ], [ %413, %412 ]
  br label %416

416:                                              ; preds = %414, %100
  %417 = phi ptr [ %101, %100 ], [ %415, %414 ]
  br label %418

418:                                              ; preds = %416, %90
  %419 = phi ptr [ %91, %90 ], [ %417, %416 ]
  br label %420

420:                                              ; preds = %418, %80
  %421 = phi ptr [ %81, %80 ], [ %419, %418 ]
  br label %422

422:                                              ; preds = %420, %70
  %423 = phi ptr [ %71, %70 ], [ %421, %420 ]
  br label %424

424:                                              ; preds = %422, %60
  %425 = phi ptr [ %61, %60 ], [ %423, %422 ]
  br label %426

426:                                              ; preds = %424, %50
  %427 = phi ptr [ %51, %50 ], [ %425, %424 ]
  br label %436

428:                                              ; preds = %34
  %429 = load i64, ptr %3, align 8
  %430 = add i64 24, %429
  %431 = add i64 %430, 1
  %432 = add i64 %431, 8
  %433 = sub i64 %432, 1
  %434 = and i64 %433, -8
  %435 = call noalias ptr @_emalloc(i64 noundef %434) #22
  br label %436

436:                                              ; preds = %428, %426
  %437 = phi ptr [ %427, %426 ], [ %435, %428 ]
  br label %438

438:                                              ; preds = %436, %26
  %439 = phi ptr [ %33, %26 ], [ %437, %436 ]
  store ptr %439, ptr %5, align 8
  %440 = load ptr, ptr %5, align 8
  store ptr %440, ptr %1, align 8
  store i32 1, ptr %2, align 4
  %441 = load i32, ptr %2, align 4
  %442 = load ptr, ptr %1, align 8
  store i32 %441, ptr %442, align 4
  %443 = load i8, ptr %4, align 1
  %444 = trunc i8 %443 to i1
  %445 = select i1 %444, i32 128, i32 0
  %446 = or i32 22, %445
  %447 = load ptr, ptr %5, align 8
  %448 = getelementptr inbounds %struct._zend_refcounted_h, ptr %447, i32 0, i32 1
  store i32 %446, ptr %448, align 4
  %449 = load ptr, ptr %5, align 8
  %450 = getelementptr inbounds %struct._zend_string, ptr %449, i32 0, i32 1
  store i64 0, ptr %450, align 8
  %451 = load i64, ptr %3, align 8
  %452 = load ptr, ptr %5, align 8
  %453 = getelementptr inbounds %struct._zend_string, ptr %452, i32 0, i32 2
  store i64 %451, ptr %453, align 8
  %454 = load ptr, ptr %5, align 8
  store ptr %454, ptr %9, align 8
  %455 = load ptr, ptr %9, align 8
  %456 = getelementptr inbounds %struct._zend_string, ptr %455, i32 0, i32 3
  %457 = load ptr, ptr %6, align 8
  %458 = load i64, ptr %7, align 8
  call void @llvm.memcpy.p0.p0.i64(ptr align 8 %456, ptr align 1 %457, i64 %458, i1 false)
  %459 = load ptr, ptr %9, align 8
  %460 = getelementptr inbounds %struct._zend_string, ptr %459, i32 0, i32 3
  %461 = load i64, ptr %7, align 8
  %462 = getelementptr inbounds [1 x i8], ptr %460, i64 0, i64 %461
  store i8 0, ptr %462, align 1
  %463 = load ptr, ptr %9, align 8
  store ptr %463, ptr %11, align 8
  %464 = load ptr, ptr %11, align 8
  %465 = call i32 @zend_get_executed_lineno()
  %466 = sub i32 %465, 1
  %467 = call i32 @zend_get_executed_lineno()
  call void @phpdbg_list_file(ptr noundef %464, i32 noundef 3, i32 noundef %466, i32 noundef %467)
  %468 = load ptr, ptr %11, align 8
  call void @_efree(ptr noundef %468)
  br label %469

469:                                              ; preds = %438, %0
  ret void
}