; Function Attrs: nounwind uwtable
define internal fastcc void @list_code() unnamed_addr #0 {
  %1 = load i64, ptr getelementptr inbounds (%struct._zend_phpdbg_globals, ptr @phpdbg_globals, i64 0, i32 53), align 8
  %2 = and i64 %1, 4096
  %.not = icmp eq i64 %2, 0
  br i1 %.not, label %3, label %17

3:                                                ; preds = %0
  %4 = tail call ptr @zend_get_executed_filename() #24
  %5 = tail call i64 @strlen(ptr noundef nonnull dereferenceable(1) %4) #25
  %6 = and i64 %5, -8
  %7 = add i64 %6, 32
  %8 = tail call noalias ptr @_emalloc(i64 noundef %7) #27
  store i32 1, ptr %8, align 4
  %9 = getelementptr inbounds i8, ptr %8, i64 4
  store i32 22, ptr %9, align 4
  %10 = getelementptr inbounds i8, ptr %8, i64 8
  store i64 0, ptr %10, align 8
  %11 = getelementptr inbounds i8, ptr %8, i64 16
  store i64 %5, ptr %11, align 8
  %12 = getelementptr inbounds i8, ptr %8, i64 24
  tail call void @llvm.memcpy.p0.p0.i64(ptr nonnull align 8 %12, ptr align 1 %4, i64 %5, i1 false)
  %13 = getelementptr inbounds [1 x i8], ptr %12, i64 0, i64 %5
  store i8 0, ptr %13, align 1
  %14 = tail call i32 @zend_get_executed_lineno() #24
  %15 = add i32 %14, -1
  %16 = tail call i32 @zend_get_executed_lineno() #24
  tail call void @phpdbg_list_file(ptr noundef nonnull %8, i32 noundef 3, i32 noundef %15, i32 noundef %16) #24
  tail call void @_efree(ptr noundef nonnull %8) #24
  br label %17

17:                                               ; preds = %3, %0
  ret void
}